target datalayout = "e-m:e-p270:32:32-p271:32:32-p272:64:64-i64:64-i128:128-f80:128-n8:16:32:64-S128"
target triple = "x86_64-pc-linux-gnu"

%class.CVQualifiers = type { ptr, i8, i8, %"class.std::vector", %"class.std::vector" }
%"class.std::vector" = type { %"struct.std::_Bvector_base" }
%"struct.std::_Bvector_base" = type { %"struct.std::_Bvector_base<std::allocator<bool>>::_Bvector_impl" }
%"struct.std::_Bvector_base<std::allocator<bool>>::_Bvector_impl" = type { %"struct.std::_Bvector_base<std::allocator<bool>>::_Bvector_impl_data" }
%"struct.std::_Bvector_base<std::allocator<bool>>::_Bvector_impl_data" = type { %"struct.std::_Bit_iterator", %"struct.std::_Bit_iterator", ptr }
%"struct.std::_Bit_iterator" = type { %"struct.std::_Bit_iterator_base.base", [4 x i8] }
%"struct.std::_Bit_iterator_base.base" = type <{ ptr, i32 }>

; Function Attrs: mustprogress nounwind uwtable
define linkonce_odr dso_local noundef nonnull align 8 dereferenceable(40) ptr @_ZNK12CVQualifiers13get_volatilesEv(ptr noundef nonnull align 8 dereferenceable(96) %0) #4 comdat align 2 {
  %2 = alloca ptr, align 8
  store ptr %0, ptr %2, align 8
  %3 = load ptr, ptr %2, align 8
  %4 = getelementptr inbounds %class.CVQualifiers, ptr %3, i32 0, i32 4
  ret ptr %4
}

; Function Attrs: mustprogress nounwind uwtable
define linkonce_odr dso_local noundef nonnull align 8 dereferenceable(40) ptr @_ZNK12CVQualifiers10get_constsEv(ptr noundef nonnull align 8 dereferenceable(96) %0) #4 comdat align 2 {
  %2 = alloca ptr, align 8
  store ptr %0, ptr %2, align 8
  %3 = load ptr, ptr %2, align 8
  %4 = getelementptr inbounds %class.CVQualifiers, ptr %3, i32 0, i32 3
  ret ptr %4
}

; Function Attrs: mustprogress uwtable
define dso_local noundef nonnull align 8 dereferenceable(96) ptr @_ZN12CVQualifiersaSERKS_(ptr noundef nonnull align 8 dereferenceable(96) %0, ptr noundef nonnull align 8 dereferenceable(96) %1) #5 align 2 {
  %3 = alloca ptr, align 8
  %4 = alloca ptr, align 8
  %5 = alloca ptr, align 8
  store ptr %0, ptr %4, align 8
  store ptr %1, ptr %5, align 8
  %6 = load ptr, ptr %4, align 8
  %7 = load ptr, ptr %5, align 8
  %8 = icmp eq ptr %6, %7
  br i1 %8, label %9, label %10

9:                                                ; preds = %2
  store ptr %6, ptr %3, align 8
  br label %31

10:                                               ; preds = %2
  %11 = load ptr, ptr %5, align 8
  %12 = getelementptr inbounds %class.CVQualifiers, ptr %11, i32 0, i32 1
  %13 = load i8, ptr %12, align 8
  %14 = trunc i8 %13 to i1
  %15 = getelementptr inbounds %class.CVQualifiers, ptr %6, i32 0, i32 1
  %16 = zext i1 %14 to i8
  store i8 %16, ptr %15, align 8
  %17 = load ptr, ptr %5, align 8
  %18 = getelementptr inbounds %class.CVQualifiers, ptr %17, i32 0, i32 2
  %19 = load i8, ptr %18, align 1
  %20 = trunc i8 %19 to i1
  %21 = getelementptr inbounds %class.CVQualifiers, ptr %6, i32 0, i32 2
  %22 = zext i1 %20 to i8
  store i8 %22, ptr %21, align 1
  %23 = load ptr, ptr %5, align 8
  %24 = call noundef nonnull align 8 dereferenceable(40) ptr @_ZNK12CVQualifiers10get_constsEv(ptr noundef nonnull align 8 dereferenceable(96) %23)
  %25 = getelementptr inbounds %class.CVQualifiers, ptr %6, i32 0, i32 3
  %26 = call noundef nonnull align 8 dereferenceable(40) ptr @_ZNSt6vectorIbSaIbEEaSERKS1_(ptr noundef nonnull align 8 dereferenceable(40) %25, ptr noundef nonnull align 8 dereferenceable(40) %24)
  %27 = load ptr, ptr %5, align 8
  %28 = call noundef nonnull align 8 dereferenceable(40) ptr @_ZNK12CVQualifiers13get_volatilesEv(ptr noundef nonnull align 8 dereferenceable(96) %27)
  %29 = getelementptr inbounds %class.CVQualifiers, ptr %6, i32 0, i32 4
  %30 = call noundef nonnull align 8 dereferenceable(40) ptr @_ZNSt6vectorIbSaIbEEaSERKS1_(ptr noundef nonnull align 8 dereferenceable(40) %29, ptr noundef nonnull align 8 dereferenceable(40) %28)
  store ptr %6, ptr %3, align 8
  br label %31

31:                                               ; preds = %10, %9
  %32 = load ptr, ptr %3, align 8
  ret ptr %32
}