; Function Attrs: mustprogress uwtable
define dso_local noundef nonnull align 8 dereferenceable(96) ptr @_ZN12CVQualifiersaSERKS_(ptr noundef nonnull returned align 8 dereferenceable(96) %0, ptr noundef nonnull align 8 dereferenceable(96) %1) local_unnamed_addr #4 align 2 {
  %3 = icmp eq ptr %0, %1
  br i1 %3, label %19, label %4

4:                                                ; preds = %2
  %5 = getelementptr inbounds i8, ptr %1, i64 8
  %6 = load i8, ptr %5, align 8
  %7 = and i8 %6, 1
  %8 = getelementptr inbounds i8, ptr %0, i64 8
  store i8 %7, ptr %8, align 8
  %9 = getelementptr inbounds i8, ptr %1, i64 9
  %10 = load i8, ptr %9, align 1
  %11 = and i8 %10, 1
  %12 = getelementptr inbounds i8, ptr %0, i64 9
  store i8 %11, ptr %12, align 1
  %13 = getelementptr inbounds i8, ptr %1, i64 16
  %14 = getelementptr inbounds i8, ptr %0, i64 16
  %15 = tail call noundef nonnull align 8 dereferenceable(40) ptr @_ZNSt6vectorIbSaIbEEaSERKS1_(ptr noundef nonnull align 8 dereferenceable(40) %14, ptr noundef nonnull align 8 dereferenceable(40) %13)
  %16 = getelementptr inbounds i8, ptr %1, i64 56
  %17 = getelementptr inbounds i8, ptr %0, i64 56
  %18 = tail call noundef nonnull align 8 dereferenceable(40) ptr @_ZNSt6vectorIbSaIbEEaSERKS1_(ptr noundef nonnull align 8 dereferenceable(40) %17, ptr noundef nonnull align 8 dereferenceable(40) %16)
  br label %19

19:                                               ; preds = %2, %4
  ret ptr %0
}